target datalayout = "e-m:e-p270:32:32-p271:32:32-p272:64:64-i64:64-i128:128-f80:128-n8:16:32:64-S128"
target triple = "x86_64-pc-linux-gnu"

%struct.strbuf = type { i64, i64, ptr }

@.str.8 = private unnamed_addr constant [20 x i8] c"could not read '%s'\00", align 1
@.str.46 = private unnamed_addr constant [1 x i8] zeroinitializer, align 1
@git_gettext_enabled = external global i32, align 4

; Function Attrs: inlinehint nounwind uwtable
define internal ptr @_(ptr noundef %0) #1 {
  %2 = alloca ptr, align 8
  %3 = alloca ptr, align 8
  store ptr %0, ptr %3, align 8, !tbaa !4
  %4 = load ptr, ptr %3, align 8, !tbaa !4
  %5 = load i8, ptr %4, align 1, !tbaa !30
  %6 = icmp ne i8 %5, 0
  br i1 %6, label %8, label %7

7:                                                ; preds = %1
  store ptr @.str.46, ptr %2, align 8
  br label %16

8:                                                ; preds = %1
  %9 = load i32, ptr @git_gettext_enabled, align 4, !tbaa !29
  %10 = icmp ne i32 %9, 0
  br i1 %10, label %13, label %11

11:                                               ; preds = %8
  %12 = load ptr, ptr %3, align 8, !tbaa !4
  store ptr %12, ptr %2, align 8
  br label %16

13:                                               ; preds = %8
  %14 = load ptr, ptr %3, align 8, !tbaa !4
  %15 = call ptr @dcgettext(ptr noundef null, ptr noundef %14, i32 noundef 5) #11
  store ptr %15, ptr %2, align 8
  br label %16

16:                                               ; preds = %13, %11, %7
  %17 = load ptr, ptr %2, align 8
  ret ptr %17
}

; Function Attrs: nounwind uwtable
define dso_local i32 @read_oneliner(ptr noundef %0, ptr noundef %1, i32 noundef %2) #0 {
  %4 = alloca i32, align 4
  %5 = alloca ptr, align 8
  %6 = alloca ptr, align 8
  %7 = alloca i32, align 4
  %8 = alloca i32, align 4
  %9 = alloca i32, align 4
  store ptr %0, ptr %5, align 8, !tbaa !41
  store ptr %1, ptr %6, align 8, !tbaa !4
  store i32 %2, ptr %7, align 4, !tbaa !29
  call void @llvm.lifetime.start.p0(i64 4, ptr %8) #11
  %10 = load ptr, ptr %5, align 8, !tbaa !41
  %11 = getelementptr inbounds nuw %struct.strbuf, ptr %10, i32 0, i32 1
  %12 = load i64, ptr %11, align 8, !tbaa !45
  %13 = trunc i64 %12 to i32
  store i32 %13, ptr %8, align 4, !tbaa !29
  %14 = load ptr, ptr %5, align 8, !tbaa !41
  %15 = load ptr, ptr %6, align 8, !tbaa !4
  %16 = call i64 @strbuf_read_file(ptr noundef %14, ptr noundef %15, i64 noundef 0)
  %17 = icmp slt i64 %16, 0
  br i1 %17, label %18, label %34

18:                                               ; preds = %3
  %19 = load i32, ptr %7, align 4, !tbaa !29
  %20 = and i32 %19, 2
  %21 = icmp ne i32 %20, 0
  br i1 %21, label %30, label %22

22:                                               ; preds = %18
  %23 = call ptr @__errno_location() #14
  %24 = load i32, ptr %23, align 4, !tbaa !29
  %25 = icmp ne i32 %24, 2
  br i1 %25, label %26, label %33

26:                                               ; preds = %22
  %27 = call ptr @__errno_location() #14
  %28 = load i32, ptr %27, align 4, !tbaa !29
  %29 = icmp ne i32 %28, 20
  br i1 %29, label %30, label %33

30:                                               ; preds = %26, %18
  %31 = call ptr @_(ptr noundef @.str.8)
  %32 = load ptr, ptr %6, align 8, !tbaa !4
  call void (ptr, ...) @warning_errno(ptr noundef %31, ptr noundef %32)
  br label %33

33:                                               ; preds = %30, %26, %22
  store i32 0, ptr %4, align 4
  store i32 1, ptr %9, align 4
  br label %99

34:                                               ; preds = %3
  %35 = load ptr, ptr %5, align 8, !tbaa !41
  %36 = getelementptr inbounds nuw %struct.strbuf, ptr %35, i32 0, i32 1
  %37 = load i64, ptr %36, align 8, !tbaa !45
  %38 = load i32, ptr %8, align 4, !tbaa !29
  %39 = sext i32 %38 to i64
  %40 = icmp ugt i64 %37, %39
  br i1 %40, label %41, label %86

41:                                               ; preds = %34
  %42 = load ptr, ptr %5, align 8, !tbaa !41
  %43 = getelementptr inbounds nuw %struct.strbuf, ptr %42, i32 0, i32 2
  %44 = load ptr, ptr %43, align 8, !tbaa !37
  %45 = load ptr, ptr %5, align 8, !tbaa !41
  %46 = getelementptr inbounds nuw %struct.strbuf, ptr %45, i32 0, i32 1
  %47 = load i64, ptr %46, align 8, !tbaa !45
  %48 = sub i64 %47, 1
  %49 = getelementptr inbounds nuw i8, ptr %44, i64 %48
  %50 = load i8, ptr %49, align 1, !tbaa !30
  %51 = sext i8 %50 to i32
  %52 = icmp eq i32 %51, 10
  br i1 %52, label %53, label %86

53:                                               ; preds = %41
  %54 = load ptr, ptr %5, align 8, !tbaa !41
  %55 = getelementptr inbounds nuw %struct.strbuf, ptr %54, i32 0, i32 1
  %56 = load i64, ptr %55, align 8, !tbaa !45
  %57 = add i64 %56, -1
  store i64 %57, ptr %55, align 8, !tbaa !45
  %58 = load i32, ptr %8, align 4, !tbaa !29
  %59 = sext i32 %58 to i64
  %60 = icmp ugt i64 %57, %59
  br i1 %60, label %61, label %78

61:                                               ; preds = %53
  %62 = load ptr, ptr %5, align 8, !tbaa !41
  %63 = getelementptr inbounds nuw %struct.strbuf, ptr %62, i32 0, i32 2
  %64 = load ptr, ptr %63, align 8, !tbaa !37
  %65 = load ptr, ptr %5, align 8, !tbaa !41
  %66 = getelementptr inbounds nuw %struct.strbuf, ptr %65, i32 0, i32 1
  %67 = load i64, ptr %66, align 8, !tbaa !45
  %68 = sub i64 %67, 1
  %69 = getelementptr inbounds nuw i8, ptr %64, i64 %68
  %70 = load i8, ptr %69, align 1, !tbaa !30
  %71 = sext i8 %70 to i32
  %72 = icmp eq i32 %71, 13
  br i1 %72, label %73, label %78

73:                                               ; preds = %61
  %74 = load ptr, ptr %5, align 8, !tbaa !41
  %75 = getelementptr inbounds nuw %struct.strbuf, ptr %74, i32 0, i32 1
  %76 = load i64, ptr %75, align 8, !tbaa !45
  %77 = add i64 %76, -1
  store i64 %77, ptr %75, align 8, !tbaa !45
  br label %78

78:                                               ; preds = %73, %61, %53
  %79 = load ptr, ptr %5, align 8, !tbaa !41
  %80 = getelementptr inbounds nuw %struct.strbuf, ptr %79, i32 0, i32 2
  %81 = load ptr, ptr %80, align 8, !tbaa !37
  %82 = load ptr, ptr %5, align 8, !tbaa !41
  %83 = getelementptr inbounds nuw %struct.strbuf, ptr %82, i32 0, i32 1
  %84 = load i64, ptr %83, align 8, !tbaa !45
  %85 = getelementptr inbounds nuw i8, ptr %81, i64 %84
  store i8 0, ptr %85, align 1, !tbaa !30
  br label %86

86:                                               ; preds = %78, %41, %34
  %87 = load i32, ptr %7, align 4, !tbaa !29
  %88 = and i32 %87, 1
  %89 = icmp ne i32 %88, 0
  br i1 %89, label %90, label %98

90:                                               ; preds = %86
  %91 = load ptr, ptr %5, align 8, !tbaa !41
  %92 = getelementptr inbounds nuw %struct.strbuf, ptr %91, i32 0, i32 1
  %93 = load i64, ptr %92, align 8, !tbaa !45
  %94 = load i32, ptr %8, align 4, !tbaa !29
  %95 = sext i32 %94 to i64
  %96 = icmp eq i64 %93, %95
  br i1 %96, label %97, label %98

97:                                               ; preds = %90
  store i32 0, ptr %4, align 4
  store i32 1, ptr %9, align 4
  br label %99

98:                                               ; preds = %90, %86
  store i32 1, ptr %4, align 4
  store i32 1, ptr %9, align 4
  br label %99

99:                                               ; preds = %98, %97, %33
  call void @llvm.lifetime.end.p0(i64 4, ptr %8) #11
  %100 = load i32, ptr %4, align 4
  ret i32 %100
}