; Function Attrs: nounwind uwtable
define dso_local range(i32 0, 2) i32 @read_oneliner(ptr noundef %0, ptr noundef %1, i32 noundef %2) local_unnamed_addr #0 {
  %4 = getelementptr inbounds nuw i8, ptr %0, i64 8
  %5 = load i64, ptr %4, align 8, !tbaa !33
  %6 = tail call i64 @strbuf_read_file(ptr noundef %0, ptr noundef %1, i64 noundef 0) #20
  %7 = icmp slt i64 %6, 0
  br i1 %7, label %8, label %17

8:                                                ; preds = %3
  %9 = and i32 %2, 2
  %.not23 = icmp eq i32 %9, 0
  br i1 %.not23, label %10, label %13

10:                                               ; preds = %8
  %11 = tail call ptr @__errno_location() #23
  %12 = load i32, ptr %11, align 4, !tbaa !21
  switch i32 %12, label %13 [
    i32 2, label %46
    i32 20, label %46
  ]

13:                                               ; preds = %10, %8
  %14 = load i32, ptr @git_gettext_enabled, align 4, !tbaa !21
  %.not4.i = icmp eq i32 %14, 0
  br i1 %.not4.i, label %_.exit, label %15

15:                                               ; preds = %13
  %16 = tail call ptr @dcgettext(ptr noundef null, ptr noundef nonnull @.str.8, i32 noundef 5) #20
  br label %_.exit

_.exit:                                           ; preds = %13, %15
  %.0.i = phi ptr [ %16, %15 ], [ @.str.8, %13 ]
  tail call void (ptr, ...) @warning_errno(ptr noundef %.0.i, ptr noundef %1) #20
  br label %46

17:                                               ; preds = %3
  %18 = load i64, ptr %4, align 8, !tbaa !33
  %sext = shl i64 %5, 32
  %19 = ashr exact i64 %sext, 32
  %20 = icmp ugt i64 %18, %19
  br i1 %20, label %21, label %40

21:                                               ; preds = %17
  %22 = getelementptr inbounds nuw i8, ptr %0, i64 16
  %23 = load ptr, ptr %22, align 8, !tbaa !31
  %24 = getelementptr i8, ptr %23, i64 %18
  %25 = getelementptr i8, ptr %24, i64 -1
  %26 = load i8, ptr %25, align 1, !tbaa !24
  %27 = icmp eq i8 %26, 10
  br i1 %27, label %28, label %40

28:                                               ; preds = %21
  %29 = add i64 %18, -1
  store i64 %29, ptr %4, align 8, !tbaa !33
  %30 = icmp ugt i64 %29, %19
  br i1 %30, label %31, label %37

31:                                               ; preds = %28
  %32 = getelementptr i8, ptr %24, i64 -2
  %33 = load i8, ptr %32, align 1, !tbaa !24
  %34 = icmp eq i8 %33, 13
  br i1 %34, label %35, label %37

35:                                               ; preds = %31
  %36 = add i64 %18, -2
  store i64 %36, ptr %4, align 8, !tbaa !33
  br label %37

37:                                               ; preds = %35, %31, %28
  %38 = phi i64 [ %36, %35 ], [ %29, %31 ], [ %29, %28 ]
  %39 = getelementptr inbounds nuw i8, ptr %23, i64 %38
  store i8 0, ptr %39, align 1, !tbaa !24
  br label %40

40:                                               ; preds = %37, %21, %17
  %41 = and i32 %2, 1
  %.not = icmp eq i32 %41, 0
  br i1 %.not, label %45, label %42

42:                                               ; preds = %40
  %43 = load i64, ptr %4, align 8, !tbaa !33
  %44 = icmp eq i64 %43, %19
  br i1 %44, label %46, label %45

45:                                               ; preds = %42, %40
  br label %46

46:                                               ; preds = %42, %_.exit, %10, %10, %45
  %.0 = phi i32 [ 1, %45 ], [ 0, %10 ], [ 0, %10 ], [ 0, %_.exit ], [ 0, %42 ]
  ret i32 %.0
}